target datalayout = "e-m:e-p270:32:32-p271:32:32-p272:64:64-i64:64-i128:128-f80:128-n8:16:32:64-S128"
target triple = "x86_64-pc-linux-gnu"

%struct.slurm_conf_t = type { i64, ptr, i16, ptr, ptr, ptr, ptr, ptr, i16, ptr, ptr, ptr, ptr, ptr, ptr, ptr, i16, ptr, ptr, ptr, ptr, i16, ptr, ptr, ptr, i64, ptr, ptr, ptr, ptr, i16, ptr, ptr, i16, i32, ptr, i32, ptr, i32, i32, ptr, ptr, i64, i64, ptr, i16, i16, ptr, i32, i32, ptr, i32, ptr, i32, i16, i16, i16, ptr, i16, i16, ptr, ptr, i32, i16, i16, ptr, i32, i16, ptr, ptr, ptr, ptr, i16, ptr, ptr, ptr, ptr, i32, ptr, ptr, ptr, ptr, i16, i16, ptr, i32, i32, i32, i16, i16, ptr, ptr, i16, ptr, ptr, i32, i32, i32, i32, i32, i64, i32, i32, i16, ptr, ptr, i32, ptr, ptr, ptr, i16, i32, ptr, ptr, i16, ptr, ptr, i32, i16, ptr, ptr, ptr, ptr, i32, i32, i16, i16, i32, ptr, i16, ptr, i32, i32, i32, i32, i32, i32, ptr, i16, ptr, ptr, i32, i16, ptr, i32, i16, i16, ptr, ptr, ptr, i16, ptr, ptr, ptr, ptr, i16, i16, ptr, i16, ptr, i16, ptr, i16, ptr, i16, ptr, ptr, ptr, ptr, i16, ptr, ptr, ptr, i32, ptr, i32, ptr, ptr, i16, ptr, ptr, i32, i16, ptr, ptr, i16, i16, ptr, i16, ptr, ptr, ptr, i32, ptr, i16, i16, ptr, ptr, ptr, ptr, ptr, ptr, ptr, ptr, i16, i32, i16, ptr, ptr, ptr, ptr, i32, ptr, ptr, ptr, i16, ptr, ptr, ptr, i16, ptr, i16, ptr, i16, i16, ptr }
%struct.http_context_t = type { i32, ptr, ptr, ptr, ptr, ptr }
%struct.request_t = type { i32, ptr, ptr, ptr, ptr, i32, i8, i32, ptr, ptr, i64, i64, ptr, ptr, ptr }
%struct.http_parser = type { i32, i32, i64, i16, i16, i32, ptr }

@slurm_conf = external global %struct.slurm_conf_t, align 8
@.str.14 = private unnamed_addr constant [7 x i8] c"http.c\00", align 1
@.str.44 = private unnamed_addr constant [37 x i8] c"NET_RAW: %s: [%s] received HTTP body\00", align 1
@__func__._on_body = private unnamed_addr constant [9 x i8] c"_on_body\00", align 1
@.str.45 = private unnamed_addr constant [68 x i8] c"NET: %s: [%s] received %zu bytes for HTTP body length %zu/%zu bytes\00", align 1

; Function Attrs: nounwind uwtable
define internal i32 @_on_body(ptr noundef %0, ptr noundef %1, i64 noundef %2) #0 {
  %4 = alloca i32, align 4
  %5 = alloca ptr, align 8
  %6 = alloca ptr, align 8
  %7 = alloca i64, align 8
  %8 = alloca ptr, align 8
  %9 = alloca i64, align 8
  %10 = alloca i32, align 4
  store ptr %0, ptr %5, align 8
  store ptr %1, ptr %6, align 8
  store i64 %2, ptr %7, align 8
  call void @llvm.lifetime.start.p0(i64 8, ptr %8) #8
  %11 = load ptr, ptr %5, align 8
  %12 = getelementptr inbounds nuw %struct.http_parser, ptr %11, i32 0, i32 6
  %13 = load ptr, ptr %12, align 8
  store ptr %13, ptr %8, align 8
  br label %14

14:                                               ; preds = %3
  %15 = load i64, ptr getelementptr inbounds nuw (%struct.slurm_conf_t, ptr @slurm_conf, i32 0, i32 42), align 8
  %16 = and i64 %15, 16
  %17 = icmp ne i64 %16, 0
  br i1 %17, label %18, label %27

18:                                               ; preds = %14
  %19 = load ptr, ptr %6, align 8
  %20 = load i64, ptr %7, align 8
  %21 = load ptr, ptr %8, align 8
  %22 = getelementptr inbounds nuw %struct.request_t, ptr %21, i32 0, i32 8
  %23 = load ptr, ptr %22, align 8
  %24 = getelementptr inbounds nuw %struct.http_context_t, ptr %23, i32 0, i32 1
  %25 = load ptr, ptr %24, align 8
  %26 = call ptr @conmgr_fd_get_name(ptr noundef %25)
  call void (ptr, i64, i64, i64, ptr, ...) @_log_flag_hex(ptr noundef %19, i64 noundef %20, i64 noundef -1, i64 noundef -1, ptr noundef @.str.44, ptr noundef @__func__._on_body, ptr noundef %26)
  br label %27

27:                                               ; preds = %18, %14
  br label %28

28:                                               ; preds = %27
  br label %29

29:                                               ; preds = %28
  %30 = load ptr, ptr %8, align 8
  %31 = getelementptr inbounds nuw %struct.request_t, ptr %30, i32 0, i32 9
  %32 = load ptr, ptr %31, align 8
  %33 = icmp ne ptr %32, null
  br i1 %33, label %34, label %81

34:                                               ; preds = %29
  call void @llvm.lifetime.start.p0(i64 8, ptr %9) #8
  %35 = load i64, ptr %7, align 8
  %36 = load ptr, ptr %8, align 8
  %37 = getelementptr inbounds nuw %struct.request_t, ptr %36, i32 0, i32 11
  %38 = load i64, ptr %37, align 8
  %39 = add i64 %35, %38
  store i64 %39, ptr %9, align 8
  %40 = load i64, ptr %9, align 8
  %41 = icmp ugt i64 %40, 52428800
  br i1 %41, label %42, label %43

42:                                               ; preds = %34
  store i32 4, ptr %10, align 4
  br label %78

43:                                               ; preds = %34
  %44 = load ptr, ptr %8, align 8
  %45 = getelementptr inbounds nuw %struct.request_t, ptr %44, i32 0, i32 10
  %46 = load i64, ptr %45, align 8
  %47 = icmp ne i64 %46, 0
  br i1 %47, label %48, label %55

48:                                               ; preds = %43
  %49 = load i64, ptr %9, align 8
  %50 = load ptr, ptr %8, align 8
  %51 = getelementptr inbounds nuw %struct.request_t, ptr %50, i32 0, i32 10
  %52 = load i64, ptr %51, align 8
  %53 = icmp ugt i64 %49, %52
  br i1 %53, label %54, label %55

54:                                               ; preds = %48
  store i32 4, ptr %10, align 4
  br label %78

55:                                               ; preds = %48, %43
  %56 = load ptr, ptr %8, align 8
  %57 = getelementptr inbounds nuw %struct.request_t, ptr %56, i32 0, i32 9
  %58 = load i64, ptr %9, align 8
  %59 = add i64 %58, 1
  %60 = call ptr @slurm_xrecalloc(ptr noundef %57, i64 noundef 1, i64 noundef %59, i1 noundef zeroext true, i1 noundef zeroext true, ptr noundef @.str.14, i32 noundef 401, ptr noundef @__func__._on_body)
  %61 = icmp ne ptr %60, null
  br i1 %61, label %63, label %62

62:                                               ; preds = %55
  store i32 4, ptr %10, align 4
  br label %78

63:                                               ; preds = %55
  %64 = load ptr, ptr %8, align 8
  %65 = getelementptr inbounds nuw %struct.request_t, ptr %64, i32 0, i32 9
  %66 = load ptr, ptr %65, align 8
  %67 = load ptr, ptr %8, align 8
  %68 = getelementptr inbounds nuw %struct.request_t, ptr %67, i32 0, i32 11
  %69 = load i64, ptr %68, align 8
  %70 = getelementptr inbounds nuw i8, ptr %66, i64 %69
  %71 = load ptr, ptr %6, align 8
  %72 = load i64, ptr %7, align 8
  call void @llvm.memmove.p0.p0.i64(ptr align 1 %70, ptr align 1 %71, i64 %72, i1 false)
  %73 = load i64, ptr %7, align 8
  %74 = load ptr, ptr %8, align 8
  %75 = getelementptr inbounds nuw %struct.request_t, ptr %74, i32 0, i32 11
  %76 = load i64, ptr %75, align 8
  %77 = add i64 %76, %73
  store i64 %77, ptr %75, align 8
  store i32 0, ptr %10, align 4
  br label %78

78:                                               ; preds = %62, %54, %42, %63
  call void @llvm.lifetime.end.p0(i64 8, ptr %9) #8
  %79 = load i32, ptr %10, align 4
  switch i32 %79, label %151 [
    i32 0, label %80
    i32 4, label %148
  ]

80:                                               ; preds = %78
  br label %112

81:                                               ; preds = %29
  %82 = load i64, ptr %7, align 8
  %83 = icmp uge i64 %82, 52428800
  br i1 %83, label %102, label %84

84:                                               ; preds = %81
  %85 = load ptr, ptr %8, align 8
  %86 = getelementptr inbounds nuw %struct.request_t, ptr %85, i32 0, i32 10
  %87 = load i64, ptr %86, align 8
  %88 = icmp ne i64 %87, 0
  br i1 %88, label %89, label %95

89:                                               ; preds = %84
  %90 = load i64, ptr %7, align 8
  %91 = load ptr, ptr %8, align 8
  %92 = getelementptr inbounds nuw %struct.request_t, ptr %91, i32 0, i32 10
  %93 = load i64, ptr %92, align 8
  %94 = icmp ugt i64 %90, %93
  br i1 %94, label %102, label %95

95:                                               ; preds = %89, %84
  %96 = load i64, ptr %7, align 8
  %97 = add i64 %96, 1
  %98 = call ptr @slurm_xcalloc(i64 noundef 1, i64 noundef %97, i1 noundef zeroext true, i1 noundef zeroext true, ptr noundef @.str.14, i32 noundef 410, ptr noundef @__func__._on_body)
  %99 = load ptr, ptr %8, align 8
  %100 = getelementptr inbounds nuw %struct.request_t, ptr %99, i32 0, i32 9
  store ptr %98, ptr %100, align 8
  %101 = icmp ne ptr %98, null
  br i1 %101, label %103, label %102

102:                                              ; preds = %95, %89, %81
  br label %148

103:                                              ; preds = %95
  %104 = load i64, ptr %7, align 8
  %105 = load ptr, ptr %8, align 8
  %106 = getelementptr inbounds nuw %struct.request_t, ptr %105, i32 0, i32 11
  store i64 %104, ptr %106, align 8
  %107 = load ptr, ptr %8, align 8
  %108 = getelementptr inbounds nuw %struct.request_t, ptr %107, i32 0, i32 9
  %109 = load ptr, ptr %108, align 8
  %110 = load ptr, ptr %6, align 8
  %111 = load i64, ptr %7, align 8
  call void @llvm.memmove.p0.p0.i64(ptr align 1 %109, ptr align 1 %110, i64 %111, i1 false)
  br label %112

112:                                              ; preds = %103, %80
  %113 = load ptr, ptr %8, align 8
  %114 = getelementptr inbounds nuw %struct.request_t, ptr %113, i32 0, i32 9
  %115 = load ptr, ptr %114, align 8
  %116 = load ptr, ptr %8, align 8
  %117 = getelementptr inbounds nuw %struct.request_t, ptr %116, i32 0, i32 11
  %118 = load i64, ptr %117, align 8
  %119 = getelementptr inbounds nuw i8, ptr %115, i64 %118
  store i8 0, ptr %119, align 1
  br label %120

120:                                              ; preds = %112
  %121 = load i64, ptr getelementptr inbounds nuw (%struct.slurm_conf_t, ptr @slurm_conf, i32 0, i32 42), align 8
  %122 = and i64 %121, 1024
  %123 = icmp ne i64 %122, 0
  br i1 %123, label %124, label %145

124:                                              ; preds = %120
  br label %125

125:                                              ; preds = %124
  %126 = call i32 @get_log_level()
  %127 = icmp sge i32 %126, 4
  br i1 %127, label %128, label %142

128:                                              ; preds = %125
  %129 = load ptr, ptr %8, align 8
  %130 = getelementptr inbounds nuw %struct.request_t, ptr %129, i32 0, i32 8
  %131 = load ptr, ptr %130, align 8
  %132 = getelementptr inbounds nuw %struct.http_context_t, ptr %131, i32 0, i32 1
  %133 = load ptr, ptr %132, align 8
  %134 = call ptr @conmgr_fd_get_name(ptr noundef %133)
  %135 = load i64, ptr %7, align 8
  %136 = load ptr, ptr %8, align 8
  %137 = getelementptr inbounds nuw %struct.request_t, ptr %136, i32 0, i32 11
  %138 = load i64, ptr %137, align 8
  %139 = load ptr, ptr %8, align 8
  %140 = getelementptr inbounds nuw %struct.request_t, ptr %139, i32 0, i32 10
  %141 = load i64, ptr %140, align 8
  call void (i32, ptr, ...) @log_var(i32 noundef 4, ptr noundef @.str.45, ptr noundef @__func__._on_body, ptr noundef %134, i64 noundef %135, i64 noundef %138, i64 noundef %141)
  br label %142

142:                                              ; preds = %128, %125
  br label %143

143:                                              ; preds = %142
  br label %144

144:                                              ; preds = %143
  br label %145

145:                                              ; preds = %144, %120
  br label %146

146:                                              ; preds = %145
  br label %147

147:                                              ; preds = %146
  store i32 0, ptr %4, align 4
  store i32 1, ptr %10, align 4
  br label %151

148:                                              ; preds = %78, %102
  %149 = load ptr, ptr %5, align 8
  %150 = call i32 @_send_reject(ptr noundef %149, i32 noundef 413)
  store i32 %150, ptr %4, align 4
  store i32 1, ptr %10, align 4
  br label %151

151:                                              ; preds = %148, %147, %78
  call void @llvm.lifetime.end.p0(i64 8, ptr %8) #8
  %152 = load i32, ptr %4, align 4
  ret i32 %152
}