; Function Attrs: nounwind uwtable
define internal range(i32 0, 2) i32 @_on_body(ptr noundef readonly captures(none) %0, ptr noundef %1, i64 noundef %2) #0 {
  %4 = getelementptr inbounds nuw i8, ptr %0, i64 24
  %5 = load ptr, ptr %4, align 8
  %6 = load i64, ptr getelementptr inbounds nuw (i8, ptr @slurm_conf, i64 320), align 8
  %7 = and i64 %6, 16
  %.not = icmp eq i64 %7, 0
  br i1 %.not, label %14, label %8

8:                                                ; preds = %3
  %9 = getelementptr inbounds nuw i8, ptr %5, i64 56
  %10 = load ptr, ptr %9, align 8
  %11 = getelementptr inbounds nuw i8, ptr %10, i64 8
  %12 = load ptr, ptr %11, align 8
  %13 = tail call ptr @conmgr_fd_get_name(ptr noundef %12) #8
  tail call void (ptr, i64, i64, i64, ptr, ...) @_log_flag_hex(ptr noundef %1, i64 noundef %2, i64 noundef -1, i64 noundef -1, ptr noundef nonnull @.str.44, ptr noundef nonnull @__func__._on_body, ptr noundef %13) #8
  br label %14

14:                                               ; preds = %8, %3
  %15 = getelementptr inbounds nuw i8, ptr %5, i64 64
  %16 = load ptr, ptr %15, align 8
  %.not43 = icmp eq ptr %16, null
  br i1 %.not43, label %35, label %17

17:                                               ; preds = %14
  %18 = getelementptr inbounds nuw i8, ptr %5, i64 80
  %19 = load i64, ptr %18, align 8
  %20 = add i64 %19, %2
  %21 = icmp ugt i64 %20, 52428800
  br i1 %21, label %.thread, label %22

22:                                               ; preds = %17
  %23 = getelementptr inbounds nuw i8, ptr %5, i64 72
  %24 = load i64, ptr %23, align 8
  %.not46 = icmp ne i64 %24, 0
  %25 = icmp ugt i64 %20, %24
  %or.cond = and i1 %.not46, %25
  br i1 %or.cond, label %.thread, label %26

26:                                               ; preds = %22
  %27 = add nuw nsw i64 %20, 1
  %28 = tail call ptr @slurm_xrecalloc(ptr noundef nonnull %15, i64 noundef 1, i64 noundef %27, i1 noundef zeroext true, i1 noundef zeroext true, ptr noundef nonnull @.str.14, i32 noundef 401, ptr noundef nonnull @__func__._on_body) #8
  %.not47 = icmp eq ptr %28, null
  br i1 %.not47, label %.thread, label %29

29:                                               ; preds = %26
  %30 = load ptr, ptr %15, align 8
  %31 = load i64, ptr %18, align 8
  %32 = getelementptr inbounds nuw i8, ptr %30, i64 %31
  tail call void @llvm.memmove.p0.p0.i64(ptr align 1 %32, ptr align 1 %1, i64 %2, i1 false)
  %33 = load i64, ptr %18, align 8
  %34 = add i64 %33, %2
  store i64 %34, ptr %18, align 8
  br label %46

35:                                               ; preds = %14
  %36 = icmp ugt i64 %2, 52428799
  br i1 %36, label %.thread, label %37

37:                                               ; preds = %35
  %38 = getelementptr inbounds nuw i8, ptr %5, i64 72
  %39 = load i64, ptr %38, align 8
  %.not44 = icmp ne i64 %39, 0
  %40 = icmp ugt i64 %2, %39
  %or.cond50 = and i1 %.not44, %40
  br i1 %or.cond50, label %.thread, label %41

41:                                               ; preds = %37
  %42 = add nuw nsw i64 %2, 1
  %43 = tail call ptr @slurm_xcalloc(i64 noundef 1, i64 noundef %42, i1 noundef zeroext true, i1 noundef zeroext true, ptr noundef nonnull @.str.14, i32 noundef 410, ptr noundef nonnull @__func__._on_body) #8
  store ptr %43, ptr %15, align 8
  %.not45 = icmp eq ptr %43, null
  br i1 %.not45, label %.thread, label %44

44:                                               ; preds = %41
  %45 = getelementptr inbounds nuw i8, ptr %5, i64 80
  store i64 %2, ptr %45, align 8
  tail call void @llvm.memmove.p0.p0.i64(ptr nonnull align 1 %43, ptr align 1 %1, i64 %2, i1 false)
  %.pre = load i64, ptr %45, align 8
  br label %46

46:                                               ; preds = %29, %44
  %47 = phi i64 [ %34, %29 ], [ %.pre, %44 ]
  %48 = load ptr, ptr %15, align 8
  %49 = getelementptr inbounds nuw i8, ptr %5, i64 80
  %50 = getelementptr inbounds nuw i8, ptr %48, i64 %47
  store i8 0, ptr %50, align 1
  %51 = load i64, ptr getelementptr inbounds nuw (i8, ptr @slurm_conf, i64 320), align 8
  %52 = and i64 %51, 1024
  %.not48 = icmp eq i64 %52, 0
  br i1 %.not48, label %65, label %53

53:                                               ; preds = %46
  %54 = tail call i32 @get_log_level() #8
  %55 = icmp sgt i32 %54, 3
  br i1 %55, label %56, label %65

56:                                               ; preds = %53
  %57 = getelementptr inbounds nuw i8, ptr %5, i64 56
  %58 = load ptr, ptr %57, align 8
  %59 = getelementptr inbounds nuw i8, ptr %58, i64 8
  %60 = load ptr, ptr %59, align 8
  %61 = tail call ptr @conmgr_fd_get_name(ptr noundef %60) #8
  %62 = load i64, ptr %49, align 8
  %63 = getelementptr inbounds nuw i8, ptr %5, i64 72
  %64 = load i64, ptr %63, align 8
  tail call void (i32, ptr, ...) @log_var(i32 noundef 4, ptr noundef nonnull @.str.45, ptr noundef nonnull @__func__._on_body, ptr noundef %61, i64 noundef %2, i64 noundef %62, i64 noundef %64) #8
  br label %65

.thread:                                          ; preds = %26, %22, %17, %37, %35, %41
  tail call fastcc void @_send_reject(ptr noundef nonnull %0, i32 noundef 413)
  br label %65

65:                                               ; preds = %46, %56, %53, %.thread
  %.038 = phi i32 [ 1, %.thread ], [ 0, %53 ], [ 0, %56 ], [ 0, %46 ]
  ret i32 %.038
}